target datalayout = "e-m:e-p270:32:32-p271:32:32-p272:64:64-i64:64-i128:128-f80:128-n8:16:32:64-S128"
target triple = "x86_64-pc-linux-gnu"

%"class.zxing::qrcode::QRCodeReader" = type <{ %"class.zxing::Reader.base", [4 x i8], %"class.zxing::qrcode::Decoder", i32, i32, %"class.zxing::DecodeHints", [7 x i8], %"struct.zxing::qrcode::QBAR_QRCODE_DETECT_INFO", i32, i32, i32, i32, i32, i32, i32, i32, i32, i32, i32, [4 x i8] }>
%"class.zxing::Reader.base" = type { %"class.zxing::Counted.base" }
%"class.zxing::Counted.base" = type <{ ptr, i32 }>
%"class.zxing::qrcode::Decoder" = type <{ i32, float, %"class.zxing::ReedSolomonDecoder", i32, [4 x i8] }>
%"class.zxing::ReedSolomonDecoder" = type { %"class.zxing::Ref" }
%"class.zxing::Ref" = type { ptr }
%"class.zxing::DecodeHints" = type { i8 }
%"struct.zxing::qrcode::QBAR_QRCODE_DETECT_INFO" = type { i32, i32, float, float, i32, float, %"class.std::vector" }
%"class.std::vector" = type { %"struct.std::_Vector_base" }
%"struct.std::_Vector_base" = type { %"struct.std::_Vector_base<zxing::Ref<zxing::ResultPoint>, std::allocator<zxing::Ref<zxing::ResultPoint>>>::_Vector_impl" }
%"struct.std::_Vector_base<zxing::Ref<zxing::ResultPoint>, std::allocator<zxing::Ref<zxing::ResultPoint>>>::_Vector_impl" = type { %"struct.std::_Vector_base<zxing::Ref<zxing::ResultPoint>, std::allocator<zxing::Ref<zxing::ResultPoint>>>::_Vector_impl_data" }
%"struct.std::_Vector_base<zxing::Ref<zxing::ResultPoint>, std::allocator<zxing::Ref<zxing::ResultPoint>>>::_Vector_impl_data" = type { ptr, ptr, ptr }

; Function Attrs: mustprogress nounwind uwtable
define hidden void @_ZN5zxing6qrcode12QRCodeReader14setReaderStateENS0_7Decoder12DecoderStateE(ptr noundef nonnull align 8 dereferenceable(148) %0, i32 noundef %1) #4 align 2 {
  %3 = alloca ptr, align 8
  %4 = alloca i32, align 4
  store ptr %0, ptr %3, align 8, !tbaa !3
  store i32 %1, ptr %4, align 4, !tbaa !149
  %5 = load ptr, ptr %3, align 8
  %6 = load i32, ptr %4, align 4, !tbaa !149
  switch i32 %6, label %44 [
    i32 19, label %7
    i32 20, label %9
    i32 21, label %16
    i32 22, label %23
    i32 23, label %30
    i32 24, label %37
  ]

7:                                                ; preds = %2
  %8 = getelementptr inbounds nuw %"class.zxing::qrcode::QRCodeReader", ptr %5, i32 0, i32 4
  store i32 3, ptr %8, align 4, !tbaa !10
  br label %44

9:                                                ; preds = %2
  %10 = getelementptr inbounds nuw %"class.zxing::qrcode::QRCodeReader", ptr %5, i32 0, i32 4
  %11 = load i32, ptr %10, align 4, !tbaa !10
  %12 = icmp slt i32 %11, 4
  br i1 %12, label %13, label %15

13:                                               ; preds = %9
  %14 = getelementptr inbounds nuw %"class.zxing::qrcode::QRCodeReader", ptr %5, i32 0, i32 4
  store i32 4, ptr %14, align 4, !tbaa !10
  br label %15

15:                                               ; preds = %13, %9
  br label %44

16:                                               ; preds = %2
  %17 = getelementptr inbounds nuw %"class.zxing::qrcode::QRCodeReader", ptr %5, i32 0, i32 4
  %18 = load i32, ptr %17, align 4, !tbaa !10
  %19 = icmp slt i32 %18, 5
  br i1 %19, label %20, label %22

20:                                               ; preds = %16
  %21 = getelementptr inbounds nuw %"class.zxing::qrcode::QRCodeReader", ptr %5, i32 0, i32 4
  store i32 5, ptr %21, align 4, !tbaa !10
  br label %22

22:                                               ; preds = %20, %16
  br label %44

23:                                               ; preds = %2
  %24 = getelementptr inbounds nuw %"class.zxing::qrcode::QRCodeReader", ptr %5, i32 0, i32 4
  %25 = load i32, ptr %24, align 4, !tbaa !10
  %26 = icmp slt i32 %25, 6
  br i1 %26, label %27, label %29

27:                                               ; preds = %23
  %28 = getelementptr inbounds nuw %"class.zxing::qrcode::QRCodeReader", ptr %5, i32 0, i32 4
  store i32 6, ptr %28, align 4, !tbaa !10
  br label %29

29:                                               ; preds = %27, %23
  br label %44

30:                                               ; preds = %2
  %31 = getelementptr inbounds nuw %"class.zxing::qrcode::QRCodeReader", ptr %5, i32 0, i32 4
  %32 = load i32, ptr %31, align 4, !tbaa !10
  %33 = icmp slt i32 %32, 7
  br i1 %33, label %34, label %36

34:                                               ; preds = %30
  %35 = getelementptr inbounds nuw %"class.zxing::qrcode::QRCodeReader", ptr %5, i32 0, i32 4
  store i32 7, ptr %35, align 4, !tbaa !10
  br label %36

36:                                               ; preds = %34, %30
  br label %44

37:                                               ; preds = %2
  %38 = getelementptr inbounds nuw %"class.zxing::qrcode::QRCodeReader", ptr %5, i32 0, i32 4
  %39 = load i32, ptr %38, align 4, !tbaa !10
  %40 = icmp slt i32 %39, 8
  br i1 %40, label %41, label %43

41:                                               ; preds = %37
  %42 = getelementptr inbounds nuw %"class.zxing::qrcode::QRCodeReader", ptr %5, i32 0, i32 4
  store i32 8, ptr %42, align 4, !tbaa !10
  br label %43

43:                                               ; preds = %41, %37
  br label %44

44:                                               ; preds = %2, %43, %36, %29, %22, %15, %7
  ret void
}