; Function Attrs: mustprogress nofree norecurse nosync nounwind willreturn memory(argmem: readwrite) uwtable
define hidden void @_ZN5zxing6qrcode12QRCodeReader14setReaderStateENS0_7Decoder12DecoderStateE(ptr noundef nonnull align 8 captures(none) dereferenceable(148) %0, i32 noundef %1) local_unnamed_addr #11 align 2 {
  switch i32 %1, label %30 [
    i32 19, label %3
    i32 20, label %5
    i32 21, label %10
    i32 22, label %15
    i32 23, label %20
    i32 24, label %25
  ]

3:                                                ; preds = %2
  %4 = getelementptr inbounds nuw i8, ptr %0, i64 44
  store i32 3, ptr %4, align 4, !tbaa !22
  br label %30

5:                                                ; preds = %2
  %6 = getelementptr inbounds nuw i8, ptr %0, i64 44
  %7 = load i32, ptr %6, align 4, !tbaa !22
  %8 = icmp slt i32 %7, 4
  br i1 %8, label %9, label %30

9:                                                ; preds = %5
  store i32 4, ptr %6, align 4, !tbaa !22
  br label %30

10:                                               ; preds = %2
  %11 = getelementptr inbounds nuw i8, ptr %0, i64 44
  %12 = load i32, ptr %11, align 4, !tbaa !22
  %13 = icmp slt i32 %12, 5
  br i1 %13, label %14, label %30

14:                                               ; preds = %10
  store i32 5, ptr %11, align 4, !tbaa !22
  br label %30

15:                                               ; preds = %2
  %16 = getelementptr inbounds nuw i8, ptr %0, i64 44
  %17 = load i32, ptr %16, align 4, !tbaa !22
  %18 = icmp slt i32 %17, 6
  br i1 %18, label %19, label %30

19:                                               ; preds = %15
  store i32 6, ptr %16, align 4, !tbaa !22
  br label %30

20:                                               ; preds = %2
  %21 = getelementptr inbounds nuw i8, ptr %0, i64 44
  %22 = load i32, ptr %21, align 4, !tbaa !22
  %23 = icmp slt i32 %22, 7
  br i1 %23, label %24, label %30

24:                                               ; preds = %20
  store i32 7, ptr %21, align 4, !tbaa !22
  br label %30

25:                                               ; preds = %2
  %26 = getelementptr inbounds nuw i8, ptr %0, i64 44
  %27 = load i32, ptr %26, align 4, !tbaa !22
  %28 = icmp slt i32 %27, 8
  br i1 %28, label %29, label %30

29:                                               ; preds = %25
  store i32 8, ptr %26, align 4, !tbaa !22
  br label %30

30:                                               ; preds = %25, %29, %20, %24, %15, %19, %10, %14, %5, %9, %3, %2
  ret void
}